target datalayout = "e-m:e-p270:32:32-p271:32:32-p272:64:64-i64:64-i128:128-f80:128-n8:16:32:64-S128"
target triple = "x86_64-pc-linux-gnu"

%struct._GdkEventScroll = type { i32, ptr, i8, i32, double, double, i32, i32, ptr, double, double, double, double, i8 }

@dt_gui_get_scroll_unit_deltas.acc_x = internal global double 0.000000e+00, align 8
@dt_gui_get_scroll_unit_deltas.acc_y = internal global double 0.000000e+00, align 8

; Function Attrs: nounwind uwtable
define i32 @dt_gui_get_scroll_unit_deltas(ptr noundef %0, ptr noundef %1, ptr noundef %2) #0 {
  %4 = alloca i32, align 4
  %5 = alloca ptr, align 8
  %6 = alloca ptr, align 8
  %7 = alloca ptr, align 8
  %8 = alloca i32, align 4
  %9 = alloca double, align 8
  %10 = alloca double, align 8
  store ptr %0, ptr %5, align 8, !tbaa !15
  store ptr %1, ptr %6, align 8, !tbaa !71
  store ptr %2, ptr %7, align 8, !tbaa !71
  %11 = load ptr, ptr %5, align 8, !tbaa !15
  %12 = call i32 @gdk_event_get_pointer_emulated(ptr noundef %11)
  %13 = icmp ne i32 %12, 0
  br i1 %13, label %14, label %15

14:                                               ; preds = %3
  store i32 0, ptr %4, align 4
  br label %129

15:                                               ; preds = %3
  call void @llvm.lifetime.start.p0(i64 4, ptr %8) #15
  store i32 0, ptr %8, align 4, !tbaa !17
  %16 = load ptr, ptr %5, align 8, !tbaa !15
  %17 = getelementptr inbounds nuw %struct._GdkEventScroll, ptr %16, i32 0, i32 7
  %18 = load i32, ptr %17, align 4, !tbaa !67
  switch i32 %18, label %126 [
    i32 2, label %19
    i32 3, label %30
    i32 0, label %41
    i32 1, label %52
    i32 4, label %63
  ]

19:                                               ; preds = %15
  %20 = load ptr, ptr %6, align 8, !tbaa !71
  %21 = icmp ne ptr %20, null
  br i1 %21, label %22, label %29

22:                                               ; preds = %19
  %23 = load ptr, ptr %6, align 8, !tbaa !71
  store i32 -1, ptr %23, align 4, !tbaa !17
  %24 = load ptr, ptr %7, align 8, !tbaa !71
  %25 = icmp ne ptr %24, null
  br i1 %25, label %26, label %28

26:                                               ; preds = %22
  %27 = load ptr, ptr %7, align 8, !tbaa !71
  store i32 0, ptr %27, align 4, !tbaa !17
  br label %28

28:                                               ; preds = %26, %22
  store i32 1, ptr %8, align 4, !tbaa !17
  br label %29

29:                                               ; preds = %28, %19
  br label %127

30:                                               ; preds = %15
  %31 = load ptr, ptr %6, align 8, !tbaa !71
  %32 = icmp ne ptr %31, null
  br i1 %32, label %33, label %40

33:                                               ; preds = %30
  %34 = load ptr, ptr %6, align 8, !tbaa !71
  store i32 1, ptr %34, align 4, !tbaa !17
  %35 = load ptr, ptr %7, align 8, !tbaa !71
  %36 = icmp ne ptr %35, null
  br i1 %36, label %37, label %39

37:                                               ; preds = %33
  %38 = load ptr, ptr %7, align 8, !tbaa !71
  store i32 0, ptr %38, align 4, !tbaa !17
  br label %39

39:                                               ; preds = %37, %33
  store i32 1, ptr %8, align 4, !tbaa !17
  br label %40

40:                                               ; preds = %39, %30
  br label %127

41:                                               ; preds = %15
  %42 = load ptr, ptr %7, align 8, !tbaa !71
  %43 = icmp ne ptr %42, null
  br i1 %43, label %44, label %51

44:                                               ; preds = %41
  %45 = load ptr, ptr %6, align 8, !tbaa !71
  %46 = icmp ne ptr %45, null
  br i1 %46, label %47, label %49

47:                                               ; preds = %44
  %48 = load ptr, ptr %6, align 8, !tbaa !71
  store i32 0, ptr %48, align 4, !tbaa !17
  br label %49

49:                                               ; preds = %47, %44
  %50 = load ptr, ptr %7, align 8, !tbaa !71
  store i32 -1, ptr %50, align 4, !tbaa !17
  store i32 1, ptr %8, align 4, !tbaa !17
  br label %51

51:                                               ; preds = %49, %41
  br label %127

52:                                               ; preds = %15
  %53 = load ptr, ptr %7, align 8, !tbaa !71
  %54 = icmp ne ptr %53, null
  br i1 %54, label %55, label %62

55:                                               ; preds = %52
  %56 = load ptr, ptr %6, align 8, !tbaa !71
  %57 = icmp ne ptr %56, null
  br i1 %57, label %58, label %60

58:                                               ; preds = %55
  %59 = load ptr, ptr %6, align 8, !tbaa !71
  store i32 0, ptr %59, align 4, !tbaa !17
  br label %60

60:                                               ; preds = %58, %55
  %61 = load ptr, ptr %7, align 8, !tbaa !71
  store i32 1, ptr %61, align 4, !tbaa !17
  store i32 1, ptr %8, align 4, !tbaa !17
  br label %62

62:                                               ; preds = %60, %52
  br label %127

63:                                               ; preds = %15
  %64 = load ptr, ptr %5, align 8, !tbaa !15
  %65 = getelementptr inbounds nuw %struct._GdkEventScroll, ptr %64, i32 0, i32 13
  %66 = load i8, ptr %65, align 8
  %67 = and i8 %66, 1
  %68 = zext i8 %67 to i32
  %69 = icmp ne i32 %68, 0
  br i1 %69, label %70, label %71

70:                                               ; preds = %63
  store double 0.000000e+00, ptr @dt_gui_get_scroll_unit_deltas.acc_y, align 8, !tbaa !68
  store double 0.000000e+00, ptr @dt_gui_get_scroll_unit_deltas.acc_x, align 8, !tbaa !68
  br label %127

71:                                               ; preds = %63
  %72 = load ptr, ptr %5, align 8, !tbaa !15
  %73 = getelementptr inbounds nuw %struct._GdkEventScroll, ptr %72, i32 0, i32 11
  %74 = load double, ptr %73, align 8, !tbaa !69
  %75 = load double, ptr @dt_gui_get_scroll_unit_deltas.acc_x, align 8, !tbaa !68
  %76 = fadd reassoc nsz arcp contract afn double %75, %74
  store double %76, ptr @dt_gui_get_scroll_unit_deltas.acc_x, align 8, !tbaa !68
  %77 = load ptr, ptr %5, align 8, !tbaa !15
  %78 = getelementptr inbounds nuw %struct._GdkEventScroll, ptr %77, i32 0, i32 12
  %79 = load double, ptr %78, align 8, !tbaa !70
  %80 = load double, ptr @dt_gui_get_scroll_unit_deltas.acc_y, align 8, !tbaa !68
  %81 = fadd reassoc nsz arcp contract afn double %80, %79
  store double %81, ptr @dt_gui_get_scroll_unit_deltas.acc_y, align 8, !tbaa !68
  %82 = load double, ptr @dt_gui_get_scroll_unit_deltas.acc_x, align 8, !tbaa !68
  %83 = call reassoc nsz arcp contract afn double @llvm.trunc.f64(double %82)
  store double %83, ptr %9, align 8, !tbaa !68
  %84 = load double, ptr @dt_gui_get_scroll_unit_deltas.acc_y, align 8, !tbaa !68
  %85 = call reassoc nsz arcp contract afn double @llvm.trunc.f64(double %84)
  store double %85, ptr %10, align 8, !tbaa !68
  %86 = load double, ptr %9, align 8, !tbaa !68
  %87 = fcmp reassoc nsz arcp contract afn une double %86, 0.000000e+00
  br i1 %87, label %91, label %88

88:                                               ; preds = %71
  %89 = load double, ptr %10, align 8, !tbaa !68
  %90 = fcmp reassoc nsz arcp contract afn une double %89, 0.000000e+00
  br i1 %90, label %91, label %125

91:                                               ; preds = %88, %71
  %92 = load double, ptr %9, align 8, !tbaa !68
  %93 = load double, ptr @dt_gui_get_scroll_unit_deltas.acc_x, align 8, !tbaa !68
  %94 = fsub reassoc nsz arcp contract afn double %93, %92
  store double %94, ptr @dt_gui_get_scroll_unit_deltas.acc_x, align 8, !tbaa !68
  %95 = load double, ptr %10, align 8, !tbaa !68
  %96 = load double, ptr @dt_gui_get_scroll_unit_deltas.acc_y, align 8, !tbaa !68
  %97 = fsub reassoc nsz arcp contract afn double %96, %95
  store double %97, ptr @dt_gui_get_scroll_unit_deltas.acc_y, align 8, !tbaa !68
  %98 = load ptr, ptr %6, align 8, !tbaa !71
  %99 = icmp ne ptr %98, null
  br i1 %99, label %100, label %103

100:                                              ; preds = %91
  %101 = load double, ptr %9, align 8, !tbaa !68
  %102 = fcmp reassoc nsz arcp contract afn une double %101, 0.000000e+00
  br i1 %102, label %109, label %103

103:                                              ; preds = %100, %91
  %104 = load ptr, ptr %7, align 8, !tbaa !71
  %105 = icmp ne ptr %104, null
  br i1 %105, label %106, label %124

106:                                              ; preds = %103
  %107 = load double, ptr %10, align 8, !tbaa !68
  %108 = fcmp reassoc nsz arcp contract afn une double %107, 0.000000e+00
  br i1 %108, label %109, label %124

109:                                              ; preds = %106, %100
  %110 = load ptr, ptr %6, align 8, !tbaa !71
  %111 = icmp ne ptr %110, null
  br i1 %111, label %112, label %116

112:                                              ; preds = %109
  %113 = load double, ptr %9, align 8, !tbaa !68
  %114 = fptosi double %113 to i32
  %115 = load ptr, ptr %6, align 8, !tbaa !71
  store i32 %114, ptr %115, align 4, !tbaa !17
  br label %116

116:                                              ; preds = %112, %109
  %117 = load ptr, ptr %7, align 8, !tbaa !71
  %118 = icmp ne ptr %117, null
  br i1 %118, label %119, label %123

119:                                              ; preds = %116
  %120 = load double, ptr %10, align 8, !tbaa !68
  %121 = fptosi double %120 to i32
  %122 = load ptr, ptr %7, align 8, !tbaa !71
  store i32 %121, ptr %122, align 4, !tbaa !17
  br label %123

123:                                              ; preds = %119, %116
  store i32 1, ptr %8, align 4, !tbaa !17
  br label %124

124:                                              ; preds = %123, %106, %103
  br label %125

125:                                              ; preds = %124, %88
  br label %127

126:                                              ; preds = %15
  br label %127

127:                                              ; preds = %126, %125, %70, %62, %51, %40, %29
  %128 = load i32, ptr %8, align 4, !tbaa !17
  store i32 %128, ptr %4, align 4
  call void @llvm.lifetime.end.p0(i64 4, ptr %8) #15
  br label %129

129:                                              ; preds = %127, %14
  %130 = load i32, ptr %4, align 4
  ret i32 %130
}