; Function Attrs: nounwind uwtable
define range(i32 0, 2) i32 @dt_gui_get_scroll_unit_deltas(ptr noundef %0, ptr noundef writeonly %1, ptr noundef writeonly %2) local_unnamed_addr #0 {
  %4 = tail call i32 @gdk_event_get_pointer_emulated(ptr noundef %0) #18
  %.not = icmp eq i32 %4, 0
  br i1 %.not, label %5, label %51

5:                                                ; preds = %3
  %6 = getelementptr inbounds nuw i8, ptr %0, i64 44
  %7 = load i32, ptr %6, align 4, !tbaa !58
  switch i32 %7, label %51 [
    i32 2, label %8
    i32 3, label %11
    i32 0, label %14
    i32 1, label %18
    i32 4, label %22
  ]

8:                                                ; preds = %5
  %.not56 = icmp eq ptr %1, null
  br i1 %.not56, label %51, label %9

9:                                                ; preds = %8
  store i32 -1, ptr %1, align 4, !tbaa !62
  %.not57 = icmp eq ptr %2, null
  br i1 %.not57, label %51, label %10

10:                                               ; preds = %9
  store i32 0, ptr %2, align 4, !tbaa !62
  br label %51

11:                                               ; preds = %5
  %.not54 = icmp eq ptr %1, null
  br i1 %.not54, label %51, label %12

12:                                               ; preds = %11
  store i32 1, ptr %1, align 4, !tbaa !62
  %.not55 = icmp eq ptr %2, null
  br i1 %.not55, label %51, label %13

13:                                               ; preds = %12
  store i32 0, ptr %2, align 4, !tbaa !62
  br label %51

14:                                               ; preds = %5
  %.not52 = icmp eq ptr %2, null
  br i1 %.not52, label %51, label %15

15:                                               ; preds = %14
  %.not53 = icmp eq ptr %1, null
  br i1 %.not53, label %17, label %16

16:                                               ; preds = %15
  store i32 0, ptr %1, align 4, !tbaa !62
  br label %17

17:                                               ; preds = %16, %15
  store i32 -1, ptr %2, align 4, !tbaa !62
  br label %51

18:                                               ; preds = %5
  %.not50 = icmp eq ptr %2, null
  br i1 %.not50, label %51, label %19

19:                                               ; preds = %18
  %.not51 = icmp eq ptr %1, null
  br i1 %.not51, label %21, label %20

20:                                               ; preds = %19
  store i32 0, ptr %1, align 4, !tbaa !62
  br label %21

21:                                               ; preds = %20, %19
  store i32 1, ptr %2, align 4, !tbaa !62
  br label %51

22:                                               ; preds = %5
  %23 = getelementptr inbounds nuw i8, ptr %0, i64 88
  %24 = load i8, ptr %23, align 8
  %25 = and i8 %24, 1
  %.not48 = icmp eq i8 %25, 0
  br i1 %.not48, label %27, label %26

26:                                               ; preds = %22
  store double 0.000000e+00, ptr @dt_gui_get_scroll_unit_deltas.acc_y, align 8, !tbaa !59
  store double 0.000000e+00, ptr @dt_gui_get_scroll_unit_deltas.acc_x, align 8, !tbaa !59
  br label %51

27:                                               ; preds = %22
  %28 = getelementptr inbounds nuw i8, ptr %0, i64 72
  %29 = load double, ptr %28, align 8, !tbaa !60
  %30 = load double, ptr @dt_gui_get_scroll_unit_deltas.acc_x, align 8, !tbaa !59
  %31 = fadd reassoc nsz arcp contract afn double %30, %29
  store double %31, ptr @dt_gui_get_scroll_unit_deltas.acc_x, align 8, !tbaa !59
  %32 = getelementptr inbounds nuw i8, ptr %0, i64 80
  %33 = load double, ptr %32, align 8, !tbaa !61
  %34 = load double, ptr @dt_gui_get_scroll_unit_deltas.acc_y, align 8, !tbaa !59
  %35 = fadd reassoc nsz arcp contract afn double %34, %33
  store double %35, ptr @dt_gui_get_scroll_unit_deltas.acc_y, align 8, !tbaa !59
  %36 = tail call reassoc nsz arcp contract afn double @llvm.trunc.f64(double %31)
  %37 = tail call reassoc nsz arcp contract afn double @llvm.trunc.f64(double %35)
  %38 = fcmp reassoc nsz arcp contract afn une double %36, 0.000000e+00
  %39 = fcmp reassoc nsz arcp contract afn une double %37, 0.000000e+00
  %or.cond = select i1 %38, i1 true, i1 %39
  br i1 %or.cond, label %40, label %51

40:                                               ; preds = %27
  %41 = fsub reassoc nsz arcp contract afn double %31, %36
  store double %41, ptr @dt_gui_get_scroll_unit_deltas.acc_x, align 8, !tbaa !59
  %42 = fsub reassoc nsz arcp contract afn double %35, %37
  store double %42, ptr @dt_gui_get_scroll_unit_deltas.acc_y, align 8, !tbaa !59
  %43 = icmp ne ptr %1, null
  %or.cond3 = and i1 %43, %38
  %44 = icmp ne ptr %2, null
  %or.cond5 = select i1 %44, i1 %39, i1 false
  %or.cond58 = select i1 %or.cond3, i1 true, i1 %or.cond5
  br i1 %or.cond58, label %45, label %51

45:                                               ; preds = %40
  br i1 %43, label %46, label %48

46:                                               ; preds = %45
  %47 = fptosi double %36 to i32
  store i32 %47, ptr %1, align 4, !tbaa !62
  br label %48

48:                                               ; preds = %46, %45
  %.not49 = icmp eq ptr %2, null
  br i1 %.not49, label %51, label %49

49:                                               ; preds = %48
  %50 = fptosi double %37 to i32
  store i32 %50, ptr %2, align 4, !tbaa !62
  br label %51

51:                                               ; preds = %26, %8, %11, %17, %14, %21, %18, %27, %5, %10, %9, %13, %12, %40, %49, %48, %3
  %.0 = phi i32 [ 0, %3 ], [ 0, %5 ], [ 0, %26 ], [ 0, %27 ], [ 1, %21 ], [ 0, %18 ], [ 1, %17 ], [ 0, %14 ], [ 0, %11 ], [ 0, %8 ], [ 1, %10 ], [ 1, %9 ], [ 1, %13 ], [ 1, %12 ], [ 0, %40 ], [ 1, %49 ], [ 1, %48 ]
  ret i32 %.0
}